target datalayout = "e-m:e-p270:32:32-p271:32:32-p272:64:64-i64:64-i128:128-f80:128-n8:16:32:64-S128"
target triple = "x86_64-pc-linux-gnu"

%"struct.std::nothrow_t" = type { i8 }

@_ZSt7nothrow = external global %"struct.std::nothrow_t", align 1

; Function Attrs: mustprogress uwtable
define ptr @proj_context_create() #1 personality ptr @__gxx_personality_v0 {
  %1 = alloca i1, align 1
  %2 = alloca ptr, align 8
  %3 = alloca i32, align 4
  %4 = call noalias noundef ptr @_ZnwmRKSt9nothrow_t(i64 noundef 520, ptr noundef nonnull align 1 dereferenceable(1) @_ZSt7nothrow) #25
  %5 = icmp eq ptr %4, null
  store i1 false, ptr %1, align 1
  br i1 %5, label %10, label %6

6:                                                ; preds = %0
  store i1 true, ptr %1, align 1
  %7 = invoke noundef ptr @_Z18pj_get_default_ctxv()
          to label %8 unwind label %12

8:                                                ; preds = %6
  invoke void @_ZN6pj_ctxC1ERKS_(ptr noundef nonnull align 8 dereferenceable(516) %4, ptr noundef nonnull align 8 dereferenceable(516) %7)
          to label %9 unwind label %12

9:                                                ; preds = %8
  br label %10

10:                                               ; preds = %9, %0
  %11 = phi ptr [ %4, %9 ], [ null, %0 ]
  ret ptr %11

12:                                               ; preds = %8, %6
  %13 = landingpad { ptr, i32 }
          cleanup
  %14 = extractvalue { ptr, i32 } %13, 0
  store ptr %14, ptr %2, align 8
  %15 = extractvalue { ptr, i32 } %13, 1
  store i32 %15, ptr %3, align 4
  %16 = load i1, ptr %1, align 1
  br i1 %16, label %17, label %18

17:                                               ; preds = %12
  call void @_ZdlPvRKSt9nothrow_t(ptr noundef %4, ptr noundef nonnull align 1 dereferenceable(1) @_ZSt7nothrow) #24
  br label %18

18:                                               ; preds = %17, %12
  br label %19

19:                                               ; preds = %18
  %20 = load ptr, ptr %2, align 8
  %21 = load i32, ptr %3, align 4
  %22 = insertvalue { ptr, i32 } poison, ptr %20, 0
  %23 = insertvalue { ptr, i32 } %22, i32 %21, 1
  resume { ptr, i32 } %23
}