; Function Attrs: mustprogress uwtable
define noundef ptr @proj_context_create() local_unnamed_addr #1 personality ptr @__gxx_personality_v0 {
  %1 = tail call noalias noundef dereferenceable_or_null(520) ptr @_ZnwmRKSt9nothrow_t(i64 noundef 520, ptr noundef nonnull align 1 dereferenceable(1) @_ZSt7nothrow) #41
  %2 = icmp eq ptr %1, null
  br i1 %2, label %6, label %3

3:                                                ; preds = %0
  %4 = invoke noundef ptr @_Z18pj_get_default_ctxv()
          to label %5 unwind label %7

5:                                                ; preds = %3
  invoke void @_ZN6pj_ctxC1ERKS_(ptr noundef nonnull align 8 dereferenceable(516) %1, ptr noundef nonnull align 8 dereferenceable(516) %4)
          to label %6 unwind label %7

6:                                                ; preds = %5, %0
  ret ptr %1

7:                                                ; preds = %5, %3
  %8 = landingpad { ptr, i32 }
          cleanup
  tail call void @_ZdlPvRKSt9nothrow_t(ptr noundef nonnull %1, ptr noundef nonnull align 1 dereferenceable(1) @_ZSt7nothrow) #39
  resume { ptr, i32 } %8
}